target datalayout = "e-m:e-p270:32:32-p271:32:32-p272:64:64-i64:64-i128:128-f80:128-n8:16:32:64-S128"
target triple = "x86_64-pc-linux-gnu"

%struct._lv_anim_t = type { ptr, ptr, ptr, ptr, ptr, ptr, ptr, ptr, ptr, i32, i32, i32, i32, i32, i32, i32, i32, i32, %union._lv_anim_path_para_t, i32, i8 }
%union._lv_anim_path_para_t = type { %struct.lv_anim_bezier3_para_t }
%struct.lv_anim_bezier3_para_t = type { i16, i16, i16, i16 }

@tv = internal global ptr null, align 8

; Function Attrs: nounwind uwtable
define void @lv_demo_widgets_start_slideshow() #0 {
  %1 = alloca ptr, align 8
  %2 = alloca ptr, align 8
  %3 = alloca i32, align 4
  %4 = alloca i32, align 4
  %5 = alloca %struct._lv_anim_t, align 8
  %6 = load ptr, ptr @tv, align 8, !tbaa !7
  call void @lv_obj_update_layout(ptr noundef %6)
  call void @llvm.lifetime.start.p0(i64 8, ptr %1) #5
  %7 = load ptr, ptr @tv, align 8, !tbaa !7
  %8 = call ptr @lv_tabview_get_content(ptr noundef %7)
  store ptr %8, ptr %1, align 8, !tbaa !7
  call void @llvm.lifetime.start.p0(i64 8, ptr %2) #5
  %9 = load ptr, ptr %1, align 8, !tbaa !7
  %10 = call ptr @lv_obj_get_child(ptr noundef %9, i32 noundef 0)
  store ptr %10, ptr %2, align 8, !tbaa !7
  call void @llvm.lifetime.start.p0(i64 4, ptr %3) #5
  %11 = load ptr, ptr %2, align 8, !tbaa !7
  %12 = call i32 @lv_obj_get_scroll_bottom(ptr noundef %11)
  store i32 %12, ptr %3, align 4, !tbaa !3
  call void @llvm.lifetime.start.p0(i64 4, ptr %4) #5
  %13 = call i32 @lv_display_get_dpi(ptr noundef null)
  %14 = call i32 @lv_anim_speed(i32 noundef %13)
  store i32 %14, ptr %4, align 4, !tbaa !3
  call void @llvm.lifetime.start.p0(i64 128, ptr %5) #5
  call void @lv_anim_init(ptr noundef %5)
  call void @lv_anim_set_exec_cb(ptr noundef %5, ptr noundef @scroll_anim_y_cb)
  %15 = load i32, ptr %4, align 4, !tbaa !3
  call void @lv_anim_set_duration(ptr noundef %5, i32 noundef %15)
  %16 = load i32, ptr %4, align 4, !tbaa !3
  call void @lv_anim_set_playback_duration(ptr noundef %5, i32 noundef %16)
  %17 = load i32, ptr %3, align 4, !tbaa !3
  call void @lv_anim_set_values(ptr noundef %5, i32 noundef 0, i32 noundef %17)
  %18 = load ptr, ptr %2, align 8, !tbaa !7
  call void @lv_anim_set_var(ptr noundef %5, ptr noundef %18)
  call void @lv_anim_set_completed_cb(ptr noundef %5, ptr noundef @slideshow_anim_completed_cb)
  %19 = call ptr @lv_anim_start(ptr noundef %5)
  call void @llvm.lifetime.end.p0(i64 128, ptr %5) #5
  call void @llvm.lifetime.end.p0(i64 4, ptr %4) #5
  call void @llvm.lifetime.end.p0(i64 4, ptr %3) #5
  call void @llvm.lifetime.end.p0(i64 8, ptr %2) #5
  call void @llvm.lifetime.end.p0(i64 8, ptr %1) #5
  ret void
}