; Function Attrs: nounwind uwtable
define void @lv_demo_widgets_start_slideshow() local_unnamed_addr #0 {
  %1 = alloca %struct._lv_anim_t, align 8
  %2 = load ptr, ptr @tv, align 8, !tbaa !7
  tail call void @lv_obj_update_layout(ptr noundef %2) #5
  %3 = load ptr, ptr @tv, align 8, !tbaa !7
  %4 = tail call ptr @lv_tabview_get_content(ptr noundef %3) #5
  %5 = tail call ptr @lv_obj_get_child(ptr noundef %4, i32 noundef 0) #5
  %6 = tail call i32 @lv_obj_get_scroll_bottom(ptr noundef %5) #5
  %7 = tail call i32 @lv_display_get_dpi(ptr noundef null) #5
  %8 = tail call i32 @lv_anim_speed(i32 noundef %7) #5
  call void @llvm.lifetime.start.p0(i64 128, ptr nonnull %1) #5
  call void @lv_anim_init(ptr noundef nonnull %1) #5
  call void @lv_anim_set_exec_cb(ptr noundef nonnull %1, ptr noundef nonnull @scroll_anim_y_cb) #5
  call void @lv_anim_set_duration(ptr noundef nonnull %1, i32 noundef %8) #5
  call void @lv_anim_set_playback_duration(ptr noundef nonnull %1, i32 noundef %8) #5
  call void @lv_anim_set_values(ptr noundef nonnull %1, i32 noundef 0, i32 noundef %6) #5
  call void @lv_anim_set_var(ptr noundef nonnull %1, ptr noundef %5) #5
  call void @lv_anim_set_completed_cb(ptr noundef nonnull %1, ptr noundef nonnull @slideshow_anim_completed_cb) #5
  %9 = call ptr @lv_anim_start(ptr noundef nonnull %1) #5
  call void @llvm.lifetime.end.p0(i64 128, ptr nonnull %1) #5
  ret void
}